; Function Attrs: mustprogress nofree norecurse nosync nounwind willreturn memory(argmem: read) uwtable
define hidden noundef i32 @_ZNK6cineon13GenericHeader18ComponentByteCountEi(ptr nocapture noundef nonnull readonly align 4 dereferenceable(1024) %this, i32 noundef %element) local_unnamed_addr #10 align 2 {
entry:
  %or.cond = icmp ugt i32 %element, 7
  br i1 %or.cond, label %return, label %if.end

if.end:                                           ; preds = %entry
  %chan = getelementptr inbounds i8, ptr %this, i64 196
  %idxprom = zext nneg i32 %element to i64
  %bitDepth = getelementptr inbounds [8 x %"struct.cineon::ImageElement"], ptr %chan, i64 0, i64 %idxprom, i32 1
  %0 = load i8, ptr %bitDepth, align 2
  switch i8 %0, label %sw.default [
    i8 8, label %return
    i8 10, label %sw.bb3
    i8 12, label %sw.bb3
    i8 16, label %sw.bb3
    i8 32, label %sw.bb4
    i8 64, label %sw.bb5
  ]

sw.bb3:                                           ; preds = %if.end, %if.end, %if.end
  br label %return

sw.bb4:                                           ; preds = %if.end
  br label %return

sw.bb5:                                           ; preds = %if.end
  br label %return

sw.default:                                       ; preds = %if.end
  br label %return

return:                                           ; preds = %sw.bb3, %sw.bb4, %sw.bb5, %sw.default, %if.end, %entry
  %retval.0 = phi i32 [ 0, %entry ], [ 8, %sw.default ], [ 8, %sw.bb5 ], [ 4, %sw.bb4 ], [ 2, %sw.bb3 ], [ 1, %if.end ]
  ret i32 %retval.0
}